target datalayout = "e-m:e-p270:32:32-p271:32:32-p272:64:64-i64:64-i128:128-f80:128-n8:16:32:64-S128"
target triple = "x86_64-unknown-linux-gnu"

%"class.llvh::hash_code" = type { i64 }
%"class.llvh::FoldingSetNodeIDRef" = type { ptr, i64 }
%"class.llvh::FoldingSetNodeID" = type { %"class.llvh::SmallVector" }
%"class.llvh::SmallVector" = type { %"class.llvh::SmallVectorImpl", %"struct.llvh::SmallVectorStorage" }
%"class.llvh::SmallVectorImpl" = type { %"class.llvh::SmallVectorTemplateBase" }
%"class.llvh::SmallVectorTemplateBase" = type { %"class.llvh::SmallVectorTemplateCommon" }
%"class.llvh::SmallVectorTemplateCommon" = type { %"class.llvh::SmallVectorBase" }
%"class.llvh::SmallVectorBase" = type { ptr, i32, i32 }
%"struct.llvh::SmallVectorStorage" = type { [32 x %"struct.llvh::AlignedCharArrayUnion"] }
%"struct.llvh::AlignedCharArrayUnion" = type { %"struct.llvh::AlignedCharArray" }
%"struct.llvh::AlignedCharArray" = type { [4 x i8] }
%"class.llvh::FoldingSetBase" = type { ptr, ptr, i32, i32 }
%"class.llvh::FoldingSetBase::Node" = type { ptr }

; Function Attrs: mustprogress nounwind uwtable
define linkonce_odr hidden void @_ZN4llvh15SmallVectorBaseC2EPvm(ptr noundef nonnull align 8 dereferenceable(16) %this, ptr noundef %FirstEl, i64 noundef %Capacity) unnamed_addr #0 comdat align 2 {
entry:
  %this.addr = alloca ptr, align 8
  %FirstEl.addr = alloca ptr, align 8
  %Capacity.addr = alloca i64, align 8
  store ptr %this, ptr %this.addr, align 8
  store ptr %FirstEl, ptr %FirstEl.addr, align 8
  store i64 %Capacity, ptr %Capacity.addr, align 8
  %this1 = load ptr, ptr %this.addr, align 8
  %BeginX = getelementptr inbounds %"class.llvh::SmallVectorBase", ptr %this1, i32 0, i32 0
  %0 = load ptr, ptr %FirstEl.addr, align 8
  store ptr %0, ptr %BeginX, align 8
  %Size = getelementptr inbounds %"class.llvh::SmallVectorBase", ptr %this1, i32 0, i32 1
  store i32 0, ptr %Size, align 8
  %Capacity2 = getelementptr inbounds %"class.llvh::SmallVectorBase", ptr %this1, i32 0, i32 2
  %1 = load i64, ptr %Capacity.addr, align 8
  %conv = trunc i64 %1 to i32
  store i32 %conv, ptr %Capacity2, align 4
  ret void
}

; Function Attrs: mustprogress nounwind uwtable
define linkonce_odr hidden noundef ptr @_ZNK4llvh25SmallVectorTemplateCommonIjvE10getFirstElEv(ptr noundef nonnull align 8 dereferenceable(16) %this) #0 comdat align 2 {
entry:
  %this.addr = alloca ptr, align 8
  store ptr %this, ptr %this.addr, align 8
  %this1 = load ptr, ptr %this.addr, align 8
  %add.ptr = getelementptr inbounds i8, ptr %this1, i64 16
  ret ptr %add.ptr
}

; Function Attrs: mustprogress nounwind uwtable
define linkonce_odr hidden void @_ZN4llvh25SmallVectorTemplateCommonIjvEC2Em(ptr noundef nonnull align 8 dereferenceable(16) %this, i64 noundef %Size) unnamed_addr #0 comdat align 2 {
entry:
  %this.addr = alloca ptr, align 8
  %Size.addr = alloca i64, align 8
  store ptr %this, ptr %this.addr, align 8
  store i64 %Size, ptr %Size.addr, align 8
  %this1 = load ptr, ptr %this.addr, align 8
  %call = call noundef ptr @_ZNK4llvh25SmallVectorTemplateCommonIjvE10getFirstElEv(ptr noundef nonnull align 8 dereferenceable(16) %this1)
  %0 = load i64, ptr %Size.addr, align 8
  call void @_ZN4llvh15SmallVectorBaseC2EPvm(ptr noundef nonnull align 8 dereferenceable(16) %this1, ptr noundef %call, i64 noundef %0)
  ret void
}

; Function Attrs: mustprogress nounwind uwtable
define linkonce_odr hidden noundef zeroext i1 @_ZNK4llvh25SmallVectorTemplateCommonIjvE7isSmallEv(ptr noundef nonnull align 8 dereferenceable(16) %this) #0 comdat align 2 {
entry:
  %this.addr = alloca ptr, align 8
  store ptr %this, ptr %this.addr, align 8
  %this1 = load ptr, ptr %this.addr, align 8
  %BeginX = getelementptr inbounds %"class.llvh::SmallVectorBase", ptr %this1, i32 0, i32 0
  %0 = load ptr, ptr %BeginX, align 8
  %call = call noundef ptr @_ZNK4llvh25SmallVectorTemplateCommonIjvE10getFirstElEv(ptr noundef nonnull align 8 dereferenceable(16) %this1)
  %cmp = icmp eq ptr %0, %call
  ret i1 %cmp
}

; Function Attrs: mustprogress nounwind uwtable
define linkonce_odr hidden void @_ZN4llvh23SmallVectorTemplateBaseIjLb1EEC2Em(ptr noundef nonnull align 8 dereferenceable(16) %this, i64 noundef %Size) unnamed_addr #0 comdat align 2 {
entry:
  %this.addr = alloca ptr, align 8
  %Size.addr = alloca i64, align 8
  store ptr %this, ptr %this.addr, align 8
  store i64 %Size, ptr %Size.addr, align 8
  %this1 = load ptr, ptr %this.addr, align 8
  %0 = load i64, ptr %Size.addr, align 8
  call void @_ZN4llvh25SmallVectorTemplateCommonIjvEC2Em(ptr noundef nonnull align 8 dereferenceable(16) %this1, i64 noundef %0)
  ret void
}

; Function Attrs: mustprogress nounwind uwtable
define linkonce_odr hidden void @_ZN4llvh15SmallVectorImplIjED2Ev(ptr noundef nonnull align 8 dereferenceable(16) %this) unnamed_addr #0 comdat align 2 {
entry:
  %this.addr.i = alloca ptr, align 8
  %this.addr = alloca ptr, align 8
  store ptr %this, ptr %this.addr, align 8
  %this1 = load ptr, ptr %this.addr, align 8
  %call = call noundef zeroext i1 @_ZNK4llvh25SmallVectorTemplateCommonIjvE7isSmallEv(ptr noundef nonnull align 8 dereferenceable(16) %this1)
  br i1 %call, label %if.end, label %if.then

if.then:                                          ; preds = %entry
  store ptr %this1, ptr %this.addr.i, align 8
  %this1.i = load ptr, ptr %this.addr.i, align 8
  %0 = load ptr, ptr %this1.i, align 8
  call void @free(ptr noundef %0) #8
  br label %if.end

if.end:                                           ; preds = %if.then, %entry
  ret void
}

; Function Attrs: mustprogress nounwind uwtable
define linkonce_odr hidden void @_ZN4llvh23SmallVectorTemplateBaseIjLb1EE13destroy_rangeEPjS2_(ptr noundef %0, ptr noundef %1) #0 comdat align 2 {
entry:
  %.addr = alloca ptr, align 8
  %.addr1 = alloca ptr, align 8
  store ptr %0, ptr %.addr, align 8
  store ptr %1, ptr %.addr1, align 8
  ret void
}

; Function Attrs: mustprogress nounwind uwtable
define linkonce_odr hidden void @_ZN4llvh15SmallVectorImplIjEC2Ej(ptr noundef nonnull align 8 dereferenceable(16) %this, i32 noundef %N) unnamed_addr #0 comdat align 2 {
entry:
  %this.addr = alloca ptr, align 8
  %N.addr = alloca i32, align 4
  store ptr %this, ptr %this.addr, align 8
  store i32 %N, ptr %N.addr, align 4
  %this1 = load ptr, ptr %this.addr, align 8
  %0 = load i32, ptr %N.addr, align 4
  %conv = zext i32 %0 to i64
  call void @_ZN4llvh23SmallVectorTemplateBaseIjLb1EEC2Em(ptr noundef nonnull align 8 dereferenceable(16) %this1, i64 noundef %conv)
  ret void
}

; Function Attrs: mustprogress nounwind uwtable
define linkonce_odr hidden noundef i64 @_ZNK4llvh9hash_codecvmEv(ptr noundef nonnull align 8 dereferenceable(8) %this) #0 comdat align 2 {
entry:
  %this.addr = alloca ptr, align 8
  store ptr %this, ptr %this.addr, align 8
  %this1 = load ptr, ptr %this.addr, align 8
  %value = getelementptr inbounds %"class.llvh::hash_code", ptr %this1, i32 0, i32 0
  %0 = load i64, ptr %value, align 8
  ret i64 %0
}

; Function Attrs: mustprogress nounwind uwtable
define linkonce_odr hidden i64 @_ZN4llvh18hash_combine_rangeIPKjEENS_9hash_codeET_S4_(ptr noundef %first, ptr noundef %last) #0 comdat {
entry:
  %retval = alloca %"class.llvh::hash_code", align 8
  %first.addr = alloca ptr, align 8
  %last.addr = alloca ptr, align 8
  store ptr %first, ptr %first.addr, align 8
  store ptr %last, ptr %last.addr, align 8
  %0 = load ptr, ptr %first.addr, align 8
  %1 = load ptr, ptr %last.addr, align 8
  %call = call i64 @_ZN4llvh7hashing6detail23hash_combine_range_implIKjEENSt9enable_ifIXsr16is_hashable_dataIT_EE5valueENS_9hash_codeEE4typeEPS5_S9_(ptr noundef %0, ptr noundef %1)
  %coerce.dive = getelementptr inbounds %"class.llvh::hash_code", ptr %retval, i32 0, i32 0
  store i64 %call, ptr %coerce.dive, align 8
  %coerce.dive1 = getelementptr inbounds %"class.llvh::hash_code", ptr %retval, i32 0, i32 0
  %2 = load i64, ptr %coerce.dive1, align 8
  ret i64 %2
}

; Function Attrs: mustprogress nounwind uwtable
define linkonce_odr hidden void @_ZN4llvh11SmallVectorIjLj32EED2Ev(ptr noundef nonnull align 8 dereferenceable(144) %this) unnamed_addr #0 comdat align 2 {
entry:
  %this.addr.i.i = alloca ptr, align 8
  %this.addr.i3 = alloca ptr, align 8
  %this.addr.i = alloca ptr, align 8
  %this.addr = alloca ptr, align 8
  store ptr %this, ptr %this.addr, align 8
  %this1 = load ptr, ptr %this.addr, align 8
  store ptr %this1, ptr %this.addr.i, align 8
  %this1.i = load ptr, ptr %this.addr.i, align 8
  %0 = load ptr, ptr %this1.i, align 8
  store ptr %this1, ptr %this.addr.i3, align 8
  %this1.i4 = load ptr, ptr %this.addr.i3, align 8
  store ptr %this1.i4, ptr %this.addr.i.i, align 8
  %this1.i.i = load ptr, ptr %this.addr.i.i, align 8
  %1 = load ptr, ptr %this1.i.i, align 8
  %call2.i = call noundef i64 @_ZNK4llvh15SmallVectorBase4sizeEv(ptr noundef nonnull align 8 dereferenceable(16) %this1.i4)
  %add.ptr.i = getelementptr inbounds i32, ptr %1, i64 %call2.i
  call void @_ZN4llvh23SmallVectorTemplateBaseIjLb1EE13destroy_rangeEPjS2_(ptr noundef %0, ptr noundef %add.ptr.i)
  call void @_ZN4llvh15SmallVectorImplIjED2Ev(ptr noundef nonnull align 8 dereferenceable(16) %this1) #8
  ret void
}

; Function Attrs: mustprogress nounwind uwtable
define linkonce_odr hidden void @_ZN4llvh15SmallVectorImplIjE5clearEv(ptr noundef nonnull align 8 dereferenceable(16) %this) #0 comdat align 2 {
entry:
  %this.addr.i.i = alloca ptr, align 8
  %this.addr.i3 = alloca ptr, align 8
  %this.addr.i = alloca ptr, align 8
  %this.addr = alloca ptr, align 8
  store ptr %this, ptr %this.addr, align 8
  %this1 = load ptr, ptr %this.addr, align 8
  store ptr %this1, ptr %this.addr.i, align 8
  %this1.i = load ptr, ptr %this.addr.i, align 8
  %0 = load ptr, ptr %this1.i, align 8
  store ptr %this1, ptr %this.addr.i3, align 8
  %this1.i4 = load ptr, ptr %this.addr.i3, align 8
  store ptr %this1.i4, ptr %this.addr.i.i, align 8
  %this1.i.i = load ptr, ptr %this.addr.i.i, align 8
  %1 = load ptr, ptr %this1.i.i, align 8
  %call2.i = call noundef i64 @_ZNK4llvh15SmallVectorBase4sizeEv(ptr noundef nonnull align 8 dereferenceable(16) %this1.i4)
  %add.ptr.i = getelementptr inbounds i32, ptr %1, i64 %call2.i
  call void @_ZN4llvh23SmallVectorTemplateBaseIjLb1EE13destroy_rangeEPjS2_(ptr noundef %0, ptr noundef %add.ptr.i)
  %Size = getelementptr inbounds %"class.llvh::SmallVectorBase", ptr %this1, i32 0, i32 1
  store i32 0, ptr %Size, align 8
  ret void
}

; Function Attrs: mustprogress nounwind uwtable
define linkonce_odr hidden void @_ZN4llvh11SmallVectorIjLj32EEC2Ev(ptr noundef nonnull align 8 dereferenceable(144) %this) unnamed_addr #0 comdat align 2 {
entry:
  %this.addr = alloca ptr, align 8
  store ptr %this, ptr %this.addr, align 8
  %this1 = load ptr, ptr %this.addr, align 8
  call void @_ZN4llvh15SmallVectorImplIjEC2Ej(ptr noundef nonnull align 8 dereferenceable(16) %this1, i32 noundef 32)
  ret void
}

; Function Attrs: mustprogress nounwind uwtable
define hidden noundef i32 @_ZNK4llvh19FoldingSetNodeIDRef11ComputeHashEv(ptr noundef nonnull align 8 dereferenceable(16) %this) #0 align 2 {
entry:
  %this.addr = alloca ptr, align 8
  %ref.tmp = alloca %"class.llvh::hash_code", align 8
  store ptr %this, ptr %this.addr, align 8
  %this1 = load ptr, ptr %this.addr, align 8
  %Data = getelementptr inbounds %"class.llvh::FoldingSetNodeIDRef", ptr %this1, i32 0, i32 0
  %0 = load ptr, ptr %Data, align 8
  %Data2 = getelementptr inbounds %"class.llvh::FoldingSetNodeIDRef", ptr %this1, i32 0, i32 0
  %1 = load ptr, ptr %Data2, align 8
  %Size = getelementptr inbounds %"class.llvh::FoldingSetNodeIDRef", ptr %this1, i32 0, i32 1
  %2 = load i64, ptr %Size, align 8
  %add.ptr = getelementptr inbounds i32, ptr %1, i64 %2
  %call = call i64 @_ZN4llvh18hash_combine_rangeIPKjEENS_9hash_codeET_S4_(ptr noundef %0, ptr noundef %add.ptr)
  %coerce.dive = getelementptr inbounds %"class.llvh::hash_code", ptr %ref.tmp, i32 0, i32 0
  store i64 %call, ptr %coerce.dive, align 8
  %call3 = call noundef i64 @_ZNK4llvh9hash_codecvmEv(ptr noundef nonnull align 8 dereferenceable(8) %ref.tmp)
  %conv = trunc i64 %call3 to i32
  ret i32 %conv
}

; Function Attrs: mustprogress nounwind uwtable
define linkonce_odr hidden void @_ZN4llvh19FoldingSetNodeIDRefC2EPKjm(ptr noundef nonnull align 8 dereferenceable(16) %this, ptr noundef %D, i64 noundef %S) unnamed_addr #0 comdat align 2 {
entry:
  %this.addr = alloca ptr, align 8
  %D.addr = alloca ptr, align 8
  %S.addr = alloca i64, align 8
  store ptr %this, ptr %this.addr, align 8
  store ptr %D, ptr %D.addr, align 8
  store i64 %S, ptr %S.addr, align 8
  %this1 = load ptr, ptr %this.addr, align 8
  %Data = getelementptr inbounds %"class.llvh::FoldingSetNodeIDRef", ptr %this1, i32 0, i32 0
  %0 = load ptr, ptr %D.addr, align 8
  store ptr %0, ptr %Data, align 8
  %Size = getelementptr inbounds %"class.llvh::FoldingSetNodeIDRef", ptr %this1, i32 0, i32 1
  %1 = load i64, ptr %S.addr, align 8
  store i64 %1, ptr %Size, align 8
  ret void
}

; Function Attrs: mustprogress nounwind uwtable
define linkonce_odr hidden noundef i64 @_ZNK4llvh15SmallVectorBase4sizeEv(ptr noundef nonnull align 8 dereferenceable(16) %this) #0 comdat align 2 {
entry:
  %this.addr = alloca ptr, align 8
  store ptr %this, ptr %this.addr, align 8
  %this1 = load ptr, ptr %this.addr, align 8
  %Size = getelementptr inbounds %"class.llvh::SmallVectorBase", ptr %this1, i32 0, i32 1
  %0 = load i32, ptr %Size, align 8
  %conv = zext i32 %0 to i64
  ret i64 %conv
}

; Function Attrs: mustprogress nounwind uwtable
define linkonce_odr hidden noundef ptr @_ZNK4llvh25SmallVectorTemplateCommonIjvE4dataEv(ptr noundef nonnull align 8 dereferenceable(16) %this) #0 comdat align 2 {
entry:
  %this.addr.i = alloca ptr, align 8
  %this.addr = alloca ptr, align 8
  store ptr %this, ptr %this.addr, align 8
  %this1 = load ptr, ptr %this.addr, align 8
  store ptr %this1, ptr %this.addr.i, align 8
  %this1.i = load ptr, ptr %this.addr.i, align 8
  %0 = load ptr, ptr %this1.i, align 8
  ret ptr %0
}

; Function Attrs: mustprogress nounwind uwtable
define linkonce_odr hidden void @_ZN4llvh16FoldingSetNodeIDD2Ev(ptr noundef nonnull align 8 dereferenceable(144) %this) unnamed_addr #0 comdat align 2 {
entry:
  %this.addr = alloca ptr, align 8
  store ptr %this, ptr %this.addr, align 8
  %this1 = load ptr, ptr %this.addr, align 8
  %Bits = getelementptr inbounds %"class.llvh::FoldingSetNodeID", ptr %this1, i32 0, i32 0
  call void @_ZN4llvh11SmallVectorIjLj32EED2Ev(ptr noundef nonnull align 8 dereferenceable(144) %Bits) #8
  ret void
}

; Function Attrs: mustprogress nounwind uwtable
define linkonce_odr hidden noundef ptr @_ZNK4llvh14FoldingSetBase4Node15getNextInBucketEv(ptr noundef nonnull align 8 dereferenceable(8) %this) #0 comdat align 2 {
entry:
  %this.addr = alloca ptr, align 8
  store ptr %this, ptr %this.addr, align 8
  %this1 = load ptr, ptr %this.addr, align 8
  %NextInFoldingSetBucket = getelementptr inbounds %"class.llvh::FoldingSetBase::Node", ptr %this1, i32 0, i32 0
  %0 = load ptr, ptr %NextInFoldingSetBucket, align 8
  ret ptr %0
}

; Function Attrs: mustprogress nounwind uwtable
define linkonce_odr hidden void @_ZN4llvh16FoldingSetNodeID5clearEv(ptr noundef nonnull align 8 dereferenceable(144) %this) #0 comdat align 2 {
entry:
  %this.addr = alloca ptr, align 8
  store ptr %this, ptr %this.addr, align 8
  %this1 = load ptr, ptr %this.addr, align 8
  %Bits = getelementptr inbounds %"class.llvh::FoldingSetNodeID", ptr %this1, i32 0, i32 0
  call void @_ZN4llvh15SmallVectorImplIjE5clearEv(ptr noundef nonnull align 8 dereferenceable(16) %Bits)
  ret void
}

; Function Attrs: mustprogress nounwind uwtable
define internal noundef ptr @_ZL10GetNextPtrPv(ptr noundef %NextInBucketPtr) #0 {
entry:
  %retval = alloca ptr, align 8
  %NextInBucketPtr.addr = alloca ptr, align 8
  store ptr %NextInBucketPtr, ptr %NextInBucketPtr.addr, align 8
  %0 = load ptr, ptr %NextInBucketPtr.addr, align 8
  %1 = ptrtoint ptr %0 to i64
  %and = and i64 %1, 1
  %tobool = icmp ne i64 %and, 0
  br i1 %tobool, label %if.then, label %if.end

if.then:                                          ; preds = %entry
  store ptr null, ptr %retval, align 8
  br label %return

if.end:                                           ; preds = %entry
  %2 = load ptr, ptr %NextInBucketPtr.addr, align 8
  store ptr %2, ptr %retval, align 8
  br label %return

return:                                           ; preds = %if.end, %if.then
  %3 = load ptr, ptr %retval, align 8
  ret ptr %3
}

; Function Attrs: mustprogress nounwind uwtable
define linkonce_odr hidden void @_ZN4llvh16FoldingSetNodeIDC2Ev(ptr noundef nonnull align 8 dereferenceable(144) %this) unnamed_addr #0 comdat align 2 {
entry:
  %this.addr = alloca ptr, align 8
  store ptr %this, ptr %this.addr, align 8
  %this1 = load ptr, ptr %this.addr, align 8
  %Bits = getelementptr inbounds %"class.llvh::FoldingSetNodeID", ptr %this1, i32 0, i32 0
  call void @_ZN4llvh11SmallVectorIjLj32EEC2Ev(ptr noundef nonnull align 8 dereferenceable(144) %Bits)
  ret void
}

; Function Attrs: mustprogress nounwind uwtable
define internal noundef ptr @_ZL12GetBucketForjPPvj(i32 noundef %Hash, ptr noundef %Buckets, i32 noundef %NumBuckets) #0 {
entry:
  %Hash.addr = alloca i32, align 4
  %Buckets.addr = alloca ptr, align 8
  %NumBuckets.addr = alloca i32, align 4
  %BucketNum = alloca i32, align 4
  store i32 %Hash, ptr %Hash.addr, align 4
  store ptr %Buckets, ptr %Buckets.addr, align 8
  store i32 %NumBuckets, ptr %NumBuckets.addr, align 4
  %0 = load i32, ptr %Hash.addr, align 4
  %1 = load i32, ptr %NumBuckets.addr, align 4
  %sub = sub i32 %1, 1
  %and = and i32 %0, %sub
  store i32 %and, ptr %BucketNum, align 4
  %2 = load ptr, ptr %Buckets.addr, align 8
  %3 = load i32, ptr %BucketNum, align 4
  %idx.ext = zext i32 %3 to i64
  %add.ptr = getelementptr inbounds ptr, ptr %2, i64 %idx.ext
  ret ptr %add.ptr
}

; Function Attrs: mustprogress nounwind uwtable
define hidden noundef i32 @_ZNK4llvh16FoldingSetNodeID11ComputeHashEv(ptr noundef nonnull align 8 dereferenceable(144) %this) #0 align 2 {
entry:
  %this.addr = alloca ptr, align 8
  %ref.tmp = alloca %"class.llvh::FoldingSetNodeIDRef", align 8
  store ptr %this, ptr %this.addr, align 8
  %this1 = load ptr, ptr %this.addr, align 8
  %Bits = getelementptr inbounds %"class.llvh::FoldingSetNodeID", ptr %this1, i32 0, i32 0
  %call = call noundef ptr @_ZNK4llvh25SmallVectorTemplateCommonIjvE4dataEv(ptr noundef nonnull align 8 dereferenceable(16) %Bits)
  %Bits2 = getelementptr inbounds %"class.llvh::FoldingSetNodeID", ptr %this1, i32 0, i32 0
  %call3 = call noundef i64 @_ZNK4llvh15SmallVectorBase4sizeEv(ptr noundef nonnull align 8 dereferenceable(16) %Bits2)
  call void @_ZN4llvh19FoldingSetNodeIDRefC2EPKjm(ptr noundef nonnull align 8 dereferenceable(16) %ref.tmp, ptr noundef %call, i64 noundef %call3)
  %call4 = call noundef i32 @_ZNK4llvh19FoldingSetNodeIDRef11ComputeHashEv(ptr noundef nonnull align 8 dereferenceable(16) %ref.tmp)
  ret i32 %call4
}

; Function Attrs: mustprogress nounwind uwtable
define hidden noundef ptr @_ZN4llvh14FoldingSetBase19FindNodeOrInsertPosERKNS_16FoldingSetNodeIDERPv(ptr noundef nonnull align 8 dereferenceable(24) %this, ptr noundef nonnull align 8 dereferenceable(144) %ID, ptr noundef nonnull align 8 dereferenceable(8) %InsertPos) #0 align 2 {
entry:
  %retval = alloca ptr, align 8
  %this.addr = alloca ptr, align 8
  %ID.addr = alloca ptr, align 8
  %InsertPos.addr = alloca ptr, align 8
  %IDHash = alloca i32, align 4
  %Bucket = alloca ptr, align 8
  %Probe = alloca ptr, align 8
  %TempID = alloca %"class.llvh::FoldingSetNodeID", align 8
  %NodeInBucket = alloca ptr, align 8
  %cleanup.dest.slot = alloca i32, align 4
  store ptr %this, ptr %this.addr, align 8
  store ptr %ID, ptr %ID.addr, align 8
  store ptr %InsertPos, ptr %InsertPos.addr, align 8
  %this1 = load ptr, ptr %this.addr, align 8
  %0 = load ptr, ptr %ID.addr, align 8
  %call = call noundef i32 @_ZNK4llvh16FoldingSetNodeID11ComputeHashEv(ptr noundef nonnull align 8 dereferenceable(144) %0)
  store i32 %call, ptr %IDHash, align 4
  %1 = load i32, ptr %IDHash, align 4
  %Buckets = getelementptr inbounds %"class.llvh::FoldingSetBase", ptr %this1, i32 0, i32 1
  %2 = load ptr, ptr %Buckets, align 8
  %NumBuckets = getelementptr inbounds %"class.llvh::FoldingSetBase", ptr %this1, i32 0, i32 2
  %3 = load i32, ptr %NumBuckets, align 8
  %call2 = call noundef ptr @_ZL12GetBucketForjPPvj(i32 noundef %1, ptr noundef %2, i32 noundef %3)
  store ptr %call2, ptr %Bucket, align 8
  %4 = load ptr, ptr %Bucket, align 8
  %5 = load ptr, ptr %4, align 8
  store ptr %5, ptr %Probe, align 8
  %6 = load ptr, ptr %InsertPos.addr, align 8
  store ptr null, ptr %6, align 8
  call void @_ZN4llvh16FoldingSetNodeIDC2Ev(ptr noundef nonnull align 8 dereferenceable(144) %TempID)
  br label %while.cond

while.cond:                                       ; preds = %if.end, %entry
  %7 = load ptr, ptr %Probe, align 8
  %call3 = call noundef ptr @_ZL10GetNextPtrPv(ptr noundef %7)
  store ptr %call3, ptr %NodeInBucket, align 8
  %8 = load ptr, ptr %NodeInBucket, align 8
  %tobool = icmp ne ptr %8, null
  br i1 %tobool, label %while.body, label %while.end

while.body:                                       ; preds = %while.cond
  %9 = load ptr, ptr %NodeInBucket, align 8
  %10 = load ptr, ptr %ID.addr, align 8
  %11 = load i32, ptr %IDHash, align 4
  %vtable = load ptr, ptr %this1, align 8
  %vfn = getelementptr inbounds ptr, ptr %vtable, i64 2
  %12 = load ptr, ptr %vfn, align 8
  %call4 = call noundef zeroext i1 %12(ptr noundef nonnull align 8 dereferenceable(24) %this1, ptr noundef %9, ptr noundef nonnull align 8 dereferenceable(144) %10, i32 noundef %11, ptr noundef nonnull align 8 dereferenceable(144) %TempID)
  br i1 %call4, label %if.then, label %if.end

if.then:                                          ; preds = %while.body
  %13 = load ptr, ptr %NodeInBucket, align 8
  store ptr %13, ptr %retval, align 8
  store i32 1, ptr %cleanup.dest.slot, align 4
  br label %cleanup

if.end:                                           ; preds = %while.body
  call void @_ZN4llvh16FoldingSetNodeID5clearEv(ptr noundef nonnull align 8 dereferenceable(144) %TempID)
  %14 = load ptr, ptr %NodeInBucket, align 8
  %call5 = call noundef ptr @_ZNK4llvh14FoldingSetBase4Node15getNextInBucketEv(ptr noundef nonnull align 8 dereferenceable(8) %14)
  store ptr %call5, ptr %Probe, align 8
  br label %while.cond, !llvm.loop !8

while.end:                                        ; preds = %while.cond
  %15 = load ptr, ptr %Bucket, align 8
  %16 = load ptr, ptr %InsertPos.addr, align 8
  store ptr %15, ptr %16, align 8
  store ptr null, ptr %retval, align 8
  store i32 1, ptr %cleanup.dest.slot, align 4
  br label %cleanup

cleanup:                                          ; preds = %while.end, %if.then
  call void @_ZN4llvh16FoldingSetNodeIDD2Ev(ptr noundef nonnull align 8 dereferenceable(144) %TempID) #8
  %17 = load ptr, ptr %retval, align 8
  ret ptr %17
}