; Function Attrs: mustprogress nounwind uwtable
define hidden noundef ptr @_ZN4llvh14FoldingSetBase19FindNodeOrInsertPosERKNS_16FoldingSetNodeIDERPv(ptr noundef nonnull align 8 dereferenceable(24) %this, ptr noundef nonnull align 8 dereferenceable(144) %ID, ptr nocapture noundef nonnull writeonly align 8 dereferenceable(8) %InsertPos) local_unnamed_addr #0 align 2 {
entry:
  %TempID = alloca %"class.llvh::FoldingSetNodeID", align 8
  %0 = load ptr, ptr %ID, align 8
  %Size.i.i = getelementptr inbounds i8, ptr %ID, i64 8
  %1 = load i32, ptr %Size.i.i, align 8
  %conv.i.i = zext i32 %1 to i64
  %add.ptr.i.i = getelementptr inbounds i32, ptr %0, i64 %conv.i.i
  %call.i.i.i = tail call i64 @_ZN4llvh7hashing6detail23hash_combine_range_implIKjEENSt9enable_ifIXsr16is_hashable_dataIT_EE5valueENS_9hash_codeEE4typeEPS5_S9_(ptr noundef %0, ptr noundef %add.ptr.i.i)
  %conv.i3.i = trunc i64 %call.i.i.i to i32
  %Buckets = getelementptr inbounds i8, ptr %this, i64 8
  %2 = load ptr, ptr %Buckets, align 8
  %NumBuckets = getelementptr inbounds i8, ptr %this, i64 16
  %3 = load i32, ptr %NumBuckets, align 8
  %sub.i = add i32 %3, -1
  %and.i = and i32 %sub.i, %conv.i3.i
  %idx.ext.i = zext i32 %and.i to i64
  %add.ptr.i = getelementptr inbounds ptr, ptr %2, i64 %idx.ext.i
  %4 = load ptr, ptr %add.ptr.i, align 8
  store ptr null, ptr %InsertPos, align 8
  %add.ptr.i.i.i.i.i.i = getelementptr inbounds i8, ptr %TempID, i64 16
  store ptr %add.ptr.i.i.i.i.i.i, ptr %TempID, align 8
  %Size.i.i.i.i.i.i = getelementptr inbounds i8, ptr %TempID, i64 8
  store i32 0, ptr %Size.i.i.i.i.i.i, align 8
  %Capacity2.i.i.i.i.i.i = getelementptr inbounds i8, ptr %TempID, i64 12
  store i32 32, ptr %Capacity2.i.i.i.i.i.i, align 4
  %5 = ptrtoint ptr %4 to i64
  %and.i811 = and i64 %5, 1
  %tobool.not.i12 = icmp ne i64 %and.i811, 0
  %tobool.not913 = icmp eq ptr %4, null
  %tobool.not14 = or i1 %tobool.not913, %tobool.not.i12
  br i1 %tobool.not14, label %while.end, label %while.body

while.body:                                       ; preds = %entry, %if.end
  %Probe.015 = phi ptr [ %7, %if.end ], [ %4, %entry ]
  %vtable = load ptr, ptr %this, align 8
  %vfn = getelementptr inbounds i8, ptr %vtable, i64 16
  %6 = load ptr, ptr %vfn, align 8
  %call4 = call noundef zeroext i1 %6(ptr noundef nonnull align 8 dereferenceable(24) %this, ptr noundef nonnull %Probe.015, ptr noundef nonnull align 8 dereferenceable(144) %ID, i32 noundef %conv.i3.i, ptr noundef nonnull align 8 dereferenceable(144) %TempID) #21
  br i1 %call4, label %cleanup, label %if.end

if.end:                                           ; preds = %while.body
  store i32 0, ptr %Size.i.i.i.i.i.i, align 8
  %7 = load ptr, ptr %Probe.015, align 8
  %8 = ptrtoint ptr %7 to i64
  %and.i8 = and i64 %8, 1
  %tobool.not.i = icmp ne i64 %and.i8, 0
  %tobool.not9 = icmp eq ptr %7, null
  %tobool.not = or i1 %tobool.not9, %tobool.not.i
  br i1 %tobool.not, label %while.end, label %while.body, !llvm.loop !9

while.end:                                        ; preds = %if.end, %entry
  store ptr %add.ptr.i, ptr %InsertPos, align 8
  br label %cleanup

cleanup:                                          ; preds = %while.body, %while.end
  %retval.0 = phi ptr [ null, %while.end ], [ %Probe.015, %while.body ]
  %9 = load ptr, ptr %TempID, align 8
  %cmp.i.i.i.i = icmp eq ptr %9, %add.ptr.i.i.i.i.i.i
  br i1 %cmp.i.i.i.i, label %_ZN4llvh16FoldingSetNodeIDD2Ev.exit, label %if.then.i.i.i

if.then.i.i.i:                                    ; preds = %cleanup
  call void @free(ptr noundef %9) #21
  br label %_ZN4llvh16FoldingSetNodeIDD2Ev.exit

_ZN4llvh16FoldingSetNodeIDD2Ev.exit:              ; preds = %cleanup, %if.then.i.i.i
  ret ptr %retval.0
}